target datalayout = "e-m:e-p270:32:32-p271:32:32-p272:64:64-i64:64-i128:128-f80:128-n8:16:32:64-S128"
target triple = "x86_64-pc-linux-gnu"

%struct.SDL_AtomicInt = type { i32 }
%struct.SDL_JoystickDriver = type { ptr, ptr, ptr, ptr, ptr, ptr, ptr, ptr, ptr, ptr, ptr, ptr, ptr, ptr, ptr, ptr, ptr, ptr, ptr, ptr, ptr }
%struct.SDL_GUID = type { [16 x i8] }
%struct.SDL_Joystick = type { i32, ptr, ptr, ptr, %struct.SDL_GUID, i16, i64, i8, i8, i32, ptr, i32, ptr, i32, ptr, i32, ptr, i32, ptr, i32, i32, ptr, i16, i16, i64, i64, i16, i16, i64, i64, i8, i8, i8, i64, i8, i32, i32, i32, i8, i32, ptr, i32, ptr, [3 x [3 x float]], i64, ptr, ptr, i32, i32, ptr }

@SDL_joysticks_initialized = internal global i8 0, align 1
@SDL_joystick_lock_pending = internal global %struct.SDL_AtomicInt zeroinitializer, align 4
@SDL_joystick_lock = internal global ptr null, align 8
@SDL_joysticks_locked = internal global i32 0, align 4
@.str.2 = private unnamed_addr constant [26 x i8] c"Parameter '%s' is invalid\00", align 1
@.str.3 = private unnamed_addr constant [9 x i8] c"joystick\00", align 1

; Function Attrs: nounwind uwtable
define hidden void @SDL_UnlockJoysticks_REAL() #0 {
  %1 = alloca i8, align 1
  %2 = alloca ptr, align 8
  call void @llvm.lifetime.start.p0(i64 1, ptr %1) #7
  store i8 0, ptr %1, align 1
  %3 = load i32, ptr @SDL_joysticks_locked, align 4
  %4 = add nsw i32 %3, -1
  store i32 %4, ptr @SDL_joysticks_locked, align 4
  %5 = load i8, ptr @SDL_joysticks_initialized, align 1, !range !3, !noundef !4
  %6 = trunc i8 %5 to i1
  br i1 %6, label %15, label %7

7:                                                ; preds = %0
  %8 = load i32, ptr @SDL_joysticks_locked, align 4
  %9 = icmp ne i32 %8, 0
  br i1 %9, label %14, label %10

10:                                               ; preds = %7
  %11 = call i32 @SDL_GetAtomicInt_REAL(ptr noundef @SDL_joystick_lock_pending)
  %12 = icmp eq i32 %11, 0
  br i1 %12, label %13, label %14

13:                                               ; preds = %10
  store i8 1, ptr %1, align 1
  br label %14

14:                                               ; preds = %13, %10, %7
  br label %15

15:                                               ; preds = %14, %0
  %16 = load i8, ptr %1, align 1, !range !3, !noundef !4
  %17 = trunc i8 %16 to i1
  br i1 %17, label %18, label %24

18:                                               ; preds = %15
  call void @llvm.lifetime.start.p0(i64 8, ptr %2) #7
  %19 = load ptr, ptr @SDL_joystick_lock, align 8
  store ptr %19, ptr %2, align 8
  %20 = load ptr, ptr %2, align 8
  call void @SDL_LockMutex_REAL(ptr noundef %20)
  %21 = load ptr, ptr @SDL_joystick_lock, align 8
  call void @SDL_UnlockMutex_REAL(ptr noundef %21)
  store ptr null, ptr @SDL_joystick_lock, align 8
  %22 = load ptr, ptr %2, align 8
  call void @SDL_UnlockMutex_REAL(ptr noundef %22)
  %23 = load ptr, ptr %2, align 8
  call void @SDL_DestroyMutex_REAL(ptr noundef %23)
  call void @llvm.lifetime.end.p0(i64 8, ptr %2) #7
  br label %26

24:                                               ; preds = %15
  %25 = load ptr, ptr @SDL_joystick_lock, align 8
  call void @SDL_UnlockMutex_REAL(ptr noundef %25)
  br label %26

26:                                               ; preds = %24, %18
  call void @llvm.lifetime.end.p0(i64 1, ptr %1) #7
  ret void
}

; Function Attrs: nounwind uwtable
define hidden void @SDL_LockJoysticks_REAL() #0 {
  %1 = call i32 @SDL_AddAtomicInt_REAL(ptr noundef @SDL_joystick_lock_pending, i32 noundef 1)
  %2 = load ptr, ptr @SDL_joystick_lock, align 8
  call void @SDL_LockMutex_REAL(ptr noundef %2)
  %3 = call i32 @SDL_AddAtomicInt_REAL(ptr noundef @SDL_joystick_lock_pending, i32 noundef -1)
  %4 = load i32, ptr @SDL_joysticks_locked, align 4
  %5 = add nsw i32 %4, 1
  store i32 %5, ptr @SDL_joysticks_locked, align 4
  ret void
}

; Function Attrs: nounwind uwtable
define hidden zeroext i1 @SDL_SetJoystickLED_REAL(ptr noundef %0, i8 noundef zeroext %1, i8 noundef zeroext %2, i8 noundef zeroext %3) #0 {
  %5 = alloca i1, align 1
  %6 = alloca ptr, align 8
  %7 = alloca i8, align 1
  %8 = alloca i8, align 1
  %9 = alloca i8, align 1
  %10 = alloca i8, align 1
  %11 = alloca i8, align 1
  %12 = alloca i32, align 4
  store ptr %0, ptr %6, align 8
  store i8 %1, ptr %7, align 1
  store i8 %2, ptr %8, align 1
  store i8 %3, ptr %9, align 1
  call void @llvm.lifetime.start.p0(i64 1, ptr %10) #7
  call void @llvm.lifetime.start.p0(i64 1, ptr %11) #7
  call void @SDL_LockJoysticks_REAL()
  %13 = load ptr, ptr %6, align 8
  %14 = call zeroext i1 @SDL_ObjectValid(ptr noundef %13, i32 noundef 4)
  br i1 %14, label %17, label %15

15:                                               ; preds = %4
  %16 = call zeroext i1 (ptr, ...) @SDL_SetError_REAL(ptr noundef @.str.2, ptr noundef @.str.3)
  call void @SDL_UnlockJoysticks_REAL()
  store i1 false, ptr %5, align 1
  store i32 1, ptr %12, align 4
  br label %81

17:                                               ; preds = %4
  %18 = load i8, ptr %7, align 1
  %19 = zext i8 %18 to i32
  %20 = load ptr, ptr %6, align 8
  %21 = getelementptr inbounds nuw %struct.SDL_Joystick, ptr %20, i32 0, i32 30
  %22 = load i8, ptr %21, align 8
  %23 = zext i8 %22 to i32
  %24 = icmp ne i32 %19, %23
  br i1 %24, label %41, label %25

25:                                               ; preds = %17
  %26 = load i8, ptr %8, align 1
  %27 = zext i8 %26 to i32
  %28 = load ptr, ptr %6, align 8
  %29 = getelementptr inbounds nuw %struct.SDL_Joystick, ptr %28, i32 0, i32 31
  %30 = load i8, ptr %29, align 1
  %31 = zext i8 %30 to i32
  %32 = icmp ne i32 %27, %31
  br i1 %32, label %41, label %33

33:                                               ; preds = %25
  %34 = load i8, ptr %9, align 1
  %35 = zext i8 %34 to i32
  %36 = load ptr, ptr %6, align 8
  %37 = getelementptr inbounds nuw %struct.SDL_Joystick, ptr %36, i32 0, i32 32
  %38 = load i8, ptr %37, align 2
  %39 = zext i8 %38 to i32
  %40 = icmp ne i32 %35, %39
  br label %41

41:                                               ; preds = %33, %25, %17
  %42 = phi i1 [ true, %25 ], [ true, %17 ], [ %40, %33 ]
  %43 = zext i1 %42 to i8
  store i8 %43, ptr %11, align 1
  %44 = load i8, ptr %11, align 1, !range !3, !noundef !4
  %45 = trunc i8 %44 to i1
  br i1 %45, label %52, label %46

46:                                               ; preds = %41
  %47 = call i64 @SDL_GetTicks_REAL()
  %48 = load ptr, ptr %6, align 8
  %49 = getelementptr inbounds nuw %struct.SDL_Joystick, ptr %48, i32 0, i32 33
  %50 = load i64, ptr %49, align 8
  %51 = icmp uge i64 %47, %50
  br i1 %51, label %52, label %68

52:                                               ; preds = %46, %41
  %53 = load ptr, ptr %6, align 8
  %54 = getelementptr inbounds nuw %struct.SDL_Joystick, ptr %53, i32 0, i32 45
  %55 = load ptr, ptr %54, align 8
  %56 = getelementptr inbounds nuw %struct.SDL_JoystickDriver, ptr %55, i32 0, i32 14
  %57 = load ptr, ptr %56, align 8
  %58 = load ptr, ptr %6, align 8
  %59 = load i8, ptr %7, align 1
  %60 = load i8, ptr %8, align 1
  %61 = load i8, ptr %9, align 1
  %62 = call zeroext i1 %57(ptr noundef %58, i8 noundef zeroext %59, i8 noundef zeroext %60, i8 noundef zeroext %61)
  %63 = zext i1 %62 to i8
  store i8 %63, ptr %10, align 1
  %64 = call i64 @SDL_GetTicks_REAL()
  %65 = add i64 %64, 5000
  %66 = load ptr, ptr %6, align 8
  %67 = getelementptr inbounds nuw %struct.SDL_Joystick, ptr %66, i32 0, i32 33
  store i64 %65, ptr %67, align 8
  br label %69

68:                                               ; preds = %46
  store i8 1, ptr %10, align 1
  br label %69

69:                                               ; preds = %68, %52
  %70 = load i8, ptr %7, align 1
  %71 = load ptr, ptr %6, align 8
  %72 = getelementptr inbounds nuw %struct.SDL_Joystick, ptr %71, i32 0, i32 30
  store i8 %70, ptr %72, align 8
  %73 = load i8, ptr %8, align 1
  %74 = load ptr, ptr %6, align 8
  %75 = getelementptr inbounds nuw %struct.SDL_Joystick, ptr %74, i32 0, i32 31
  store i8 %73, ptr %75, align 1
  %76 = load i8, ptr %9, align 1
  %77 = load ptr, ptr %6, align 8
  %78 = getelementptr inbounds nuw %struct.SDL_Joystick, ptr %77, i32 0, i32 32
  store i8 %76, ptr %78, align 2
  call void @SDL_UnlockJoysticks_REAL()
  %79 = load i8, ptr %10, align 1, !range !3, !noundef !4
  %80 = trunc i8 %79 to i1
  store i1 %80, ptr %5, align 1
  store i32 1, ptr %12, align 4
  br label %81

81:                                               ; preds = %69, %15
  call void @llvm.lifetime.end.p0(i64 1, ptr %11) #7
  call void @llvm.lifetime.end.p0(i64 1, ptr %10) #7
  %82 = load i1, ptr %5, align 1
  ret i1 %82
}