; Function Attrs: nounwind uwtable
define hidden zeroext i1 @SDL_SetJoystickLED_REAL(ptr noundef %0, i8 noundef zeroext %1, i8 noundef zeroext %2, i8 noundef zeroext %3) local_unnamed_addr #1 {
  %5 = tail call i32 @SDL_AddAtomicInt_REAL(ptr noundef nonnull @SDL_joystick_lock_pending, i32 noundef 1) #13
  %6 = load ptr, ptr @SDL_joystick_lock, align 8
  tail call void @SDL_LockMutex_REAL(ptr noundef %6) #13
  %7 = tail call i32 @SDL_AddAtomicInt_REAL(ptr noundef nonnull @SDL_joystick_lock_pending, i32 noundef -1) #13
  %8 = load i32, ptr @SDL_joysticks_locked, align 4
  %9 = add nsw i32 %8, 1
  store i32 %9, ptr @SDL_joysticks_locked, align 4
  %10 = tail call zeroext i1 @SDL_ObjectValid(ptr noundef %0, i32 noundef 4) #13
  br i1 %10, label %23, label %11

11:                                               ; preds = %4
  %12 = tail call zeroext i1 (ptr, ...) @SDL_SetError_REAL(ptr noundef nonnull @.str.2, ptr noundef nonnull @.str.3) #13
  %13 = load i32, ptr @SDL_joysticks_locked, align 4
  %14 = add nsw i32 %13, -1
  store i32 %14, ptr @SDL_joysticks_locked, align 4
  %.b4.i = load i1, ptr @SDL_joysticks_initialized, align 1
  %15 = icmp ne i32 %14, 0
  %or.cond.i = select i1 %.b4.i, i1 true, i1 %15
  br i1 %or.cond.i, label %.critedge.i, label %16

16:                                               ; preds = %11
  %17 = tail call i32 @SDL_GetAtomicInt_REAL(ptr noundef nonnull @SDL_joystick_lock_pending) #13
  %18 = icmp eq i32 %17, 0
  br i1 %18, label %19, label %.critedge.i

19:                                               ; preds = %16
  %20 = load ptr, ptr @SDL_joystick_lock, align 8
  tail call void @SDL_LockMutex_REAL(ptr noundef %20) #13
  %21 = load ptr, ptr @SDL_joystick_lock, align 8
  tail call void @SDL_UnlockMutex_REAL(ptr noundef %21) #13
  store ptr null, ptr @SDL_joystick_lock, align 8
  tail call void @SDL_UnlockMutex_REAL(ptr noundef %20) #13
  tail call void @SDL_DestroyMutex_REAL(ptr noundef %20) #13
  br label %SDL_UnlockJoysticks_REAL.exit

.critedge.i:                                      ; preds = %16, %11
  %22 = load ptr, ptr @SDL_joystick_lock, align 8
  tail call void @SDL_UnlockMutex_REAL(ptr noundef %22) #13
  br label %SDL_UnlockJoysticks_REAL.exit

23:                                               ; preds = %4
  %24 = getelementptr inbounds nuw i8, ptr %0, i64 208
  %25 = load i8, ptr %24, align 8
  %.not = icmp eq i8 %1, %25
  br i1 %.not, label %26, label %.critedge

26:                                               ; preds = %23
  %27 = getelementptr inbounds nuw i8, ptr %0, i64 209
  %28 = load i8, ptr %27, align 1
  %.not23 = icmp eq i8 %2, %28
  br i1 %.not23, label %29, label %.critedge

29:                                               ; preds = %26
  %30 = getelementptr inbounds nuw i8, ptr %0, i64 210
  %31 = load i8, ptr %30, align 2
  %.not29 = icmp eq i8 %3, %31
  br i1 %.not29, label %32, label %.critedge

32:                                               ; preds = %29
  %33 = tail call i64 @SDL_GetTicks_REAL() #13
  %34 = getelementptr inbounds nuw i8, ptr %0, i64 216
  %35 = load i64, ptr %34, align 8
  %.not24 = icmp ult i64 %33, %35
  br i1 %.not24, label %44, label %.critedge

.critedge:                                        ; preds = %26, %23, %32, %29
  %36 = getelementptr inbounds nuw i8, ptr %0, i64 320
  %37 = load ptr, ptr %36, align 8
  %38 = getelementptr inbounds nuw i8, ptr %37, i64 112
  %39 = load ptr, ptr %38, align 8
  %40 = tail call zeroext i1 %39(ptr noundef nonnull %0, i8 noundef zeroext %1, i8 noundef zeroext %2, i8 noundef zeroext %3) #13
  %41 = tail call i64 @SDL_GetTicks_REAL() #13
  %42 = add i64 %41, 5000
  %43 = getelementptr inbounds nuw i8, ptr %0, i64 216
  store i64 %42, ptr %43, align 8
  br label %44

44:                                               ; preds = %32, %.critedge
  %.022 = phi i1 [ %40, %.critedge ], [ true, %32 ]
  store i8 %1, ptr %24, align 8
  %45 = getelementptr inbounds nuw i8, ptr %0, i64 209
  store i8 %2, ptr %45, align 1
  %46 = getelementptr inbounds nuw i8, ptr %0, i64 210
  store i8 %3, ptr %46, align 2
  %47 = load i32, ptr @SDL_joysticks_locked, align 4
  %48 = add nsw i32 %47, -1
  store i32 %48, ptr @SDL_joysticks_locked, align 4
  %.b4.i25 = load i1, ptr @SDL_joysticks_initialized, align 1
  %49 = icmp ne i32 %48, 0
  %or.cond.i26 = select i1 %.b4.i25, i1 true, i1 %49
  br i1 %or.cond.i26, label %.critedge.i27, label %50

50:                                               ; preds = %44
  %51 = tail call i32 @SDL_GetAtomicInt_REAL(ptr noundef nonnull @SDL_joystick_lock_pending) #13
  %52 = icmp eq i32 %51, 0
  br i1 %52, label %53, label %.critedge.i27

53:                                               ; preds = %50
  %54 = load ptr, ptr @SDL_joystick_lock, align 8
  tail call void @SDL_LockMutex_REAL(ptr noundef %54) #13
  %55 = load ptr, ptr @SDL_joystick_lock, align 8
  tail call void @SDL_UnlockMutex_REAL(ptr noundef %55) #13
  store ptr null, ptr @SDL_joystick_lock, align 8
  tail call void @SDL_UnlockMutex_REAL(ptr noundef %54) #13
  tail call void @SDL_DestroyMutex_REAL(ptr noundef %54) #13
  br label %SDL_UnlockJoysticks_REAL.exit

.critedge.i27:                                    ; preds = %50, %44
  %56 = load ptr, ptr @SDL_joystick_lock, align 8
  tail call void @SDL_UnlockMutex_REAL(ptr noundef %56) #13
  br label %SDL_UnlockJoysticks_REAL.exit

SDL_UnlockJoysticks_REAL.exit:                    ; preds = %.critedge.i27, %53, %.critedge.i, %19
  %.0 = phi i1 [ false, %19 ], [ false, %.critedge.i ], [ %.022, %53 ], [ %.022, %.critedge.i27 ]
  ret i1 %.0
}